; ModuleID = '12/884.c'
source_filename = "12/884.c"
target datalayout = "e-m:e-p270:32:32-p271:32:32-p272:64:64-i64:64-f80:128-n8:16:32:64-S128"
target triple = "x86_64-pc-linux-gnu"

@.str = private unnamed_addr constant [3 x i8] c"%f\00", align 1
@.str.1 = private unnamed_addr constant [4 x i8] c"%d\0A\00", align 1

; Function Attrs: noinline nounwind uwtable
define dso_local i32 @main() #0 {
  %1 = alloca i32, align 4
  %2 = alloca [16 x float], align 16
  %3 = alloca i32, align 4
  %4 = alloca i32, align 4
  %5 = alloca i32, align 4
  %6 = alloca i32, align 4
  store i32 0, i32* %1, align 4
  store i32 0, i32* %3, align 4
  br label %7

7:                                                ; preds = %91, %0
  %8 = load i32, i32* %3, align 4
  %9 = icmp slt i32 %8, 100
  br i1 %9, label %10, label %94

10:                                               ; preds = %7
  store i32 0, i32* %5, align 4
  store i32 0, i32* %6, align 4
  %11 = getelementptr inbounds [16 x float], [16 x float]* %2, i64 0, i64 0
  %12 = call i32 (i8*, ...) @__isoc99_scanf(i8* getelementptr inbounds ([3 x i8], [3 x i8]* @.str, i64 0, i64 0), float* %11)
  %13 = getelementptr inbounds [16 x float], [16 x float]* %2, i64 0, i64 0
  %14 = load float, float* %13, align 16
  %15 = fcmp oeq float %14, -1.000000e+00
  br i1 %15, label %16, label %17

16:                                               ; preds = %10
  br label %94

17:                                               ; preds = %10
  %18 = load i32, i32* %5, align 4
  %19 = add nsw i32 %18, 1
  store i32 %19, i32* %5, align 4
  store i32 1, i32* %4, align 4
  br label %20

20:                                               ; preds = %37, %17
  %21 = load i32, i32* %4, align 4
  %22 = icmp slt i32 %21, 16
  br i1 %22, label %23, label %40

23:                                               ; preds = %20
  %24 = load i32, i32* %4, align 4
  %25 = sext i32 %24 to i64
  %26 = getelementptr inbounds [16 x float], [16 x float]* %2, i64 0, i64 %25
  %27 = call i32 (i8*, ...) @__isoc99_scanf(i8* getelementptr inbounds ([3 x i8], [3 x i8]* @.str, i64 0, i64 0), float* %26)
  %28 = load i32, i32* %4, align 4
  %29 = sext i32 %28 to i64
  %30 = getelementptr inbounds [16 x float], [16 x float]* %2, i64 0, i64 %29
  %31 = load float, float* %30, align 4
  %32 = fcmp oeq float %31, 0.000000e+00
  br i1 %32, label %33, label %34

33:                                               ; preds = %23
  br label %40

34:                                               ; preds = %23
  %35 = load i32, i32* %5, align 4
  %36 = add nsw i32 %35, 1
  store i32 %36, i32* %5, align 4
  br label %37

37:                                               ; preds = %34
  %38 = load i32, i32* %4, align 4
  %39 = add nsw i32 %38, 1
  store i32 %39, i32* %4, align 4
  br label %20

40:                                               ; preds = %33, %20
  store i32 0, i32* %3, align 4
  br label %41

41:                                               ; preds = %85, %40
  %42 = load i32, i32* %3, align 4
  %43 = load i32, i32* %5, align 4
  %44 = sub nsw i32 %43, 1
  %45 = icmp slt i32 %42, %44
  br i1 %45, label %46, label %88

46:                                               ; preds = %41
  %47 = load i32, i32* %3, align 4
  %48 = add nsw i32 %47, 1
  store i32 %48, i32* %4, align 4
  br label %49

49:                                               ; preds = %81, %46
  %50 = load i32, i32* %4, align 4
  %51 = load i32, i32* %5, align 4
  %52 = icmp slt i32 %50, %51
  br i1 %52, label %53, label %84

53:                                               ; preds = %49
  %54 = load i32, i32* %4, align 4
  %55 = sext i32 %54 to i64
  %56 = getelementptr inbounds [16 x float], [16 x float]* %2, i64 0, i64 %55
  %57 = load float, float* %56, align 4
  %58 = load i32, i32* %3, align 4
  %59 = sext i32 %58 to i64
  %60 = getelementptr inbounds [16 x float], [16 x float]* %2, i64 0, i64 %59
  %61 = load float, float* %60, align 4
  %62 = fmul float %61, 2.000000e+00
  %63 = fcmp oeq float %57, %62
  br i1 %63, label %77, label %64

64:                                               ; preds = %53
  %65 = load i32, i32* %4, align 4
  %66 = sext i32 %65 to i64
  %67 = getelementptr inbounds [16 x float], [16 x float]* %2, i64 0, i64 %66
  %68 = load float, float* %67, align 4
  %69 = fpext float %68 to double
  %70 = load i32, i32* %3, align 4
  %71 = sext i32 %70 to i64
  %72 = getelementptr inbounds [16 x float], [16 x float]* %2, i64 0, i64 %71
  %73 = load float, float* %72, align 4
  %74 = fpext float %73 to double
  %75 = fmul double 5.000000e-01, %74
  %76 = fcmp oeq double %69, %75
  br i1 %76, label %77, label %80

77:                                               ; preds = %64, %53
  %78 = load i32, i32* %6, align 4
  %79 = add nsw i32 %78, 1
  store i32 %79, i32* %6, align 4
  br label %80

80:                                               ; preds = %77, %64
  br label %81

81:                                               ; preds = %80
  %82 = load i32, i32* %4, align 4
  %83 = add nsw i32 %82, 1
  store i32 %83, i32* %4, align 4
  br label %49

84:                                               ; preds = %49
  br label %85

85:                                               ; preds = %84
  %86 = load i32, i32* %3, align 4
  %87 = add nsw i32 %86, 1
  store i32 %87, i32* %3, align 4
  br label %41

88:                                               ; preds = %41
  %89 = load i32, i32* %6, align 4
  %90 = call i32 (i8*, ...) @printf(i8* getelementptr inbounds ([4 x i8], [4 x i8]* @.str.1, i64 0, i64 0), i32 %89)
  br label %91

91:                                               ; preds = %88
  %92 = load i32, i32* %3, align 4
  %93 = add nsw i32 %92, 1
  store i32 %93, i32* %3, align 4
  br label %7

94:                                               ; preds = %16, %7
  ret i32 0
}

declare dso_local i32 @__isoc99_scanf(i8*, ...) #1

declare dso_local i32 @printf(i8*, ...) #1


!llvm.module.flags = !{!0}
!llvm.ident = !{!1}

!0 = !{i32 1, !"wchar_size", i32 4}
!1 = !{!"clang version 10.0.0-4ubuntu1 "}
